; Function Attrs: mustprogress nofree norecurse nosync nounwind willreturn memory(argmem: read) uwtable
define range(i32 -1, 2) i32 @ossl_qrl_enc_level_set_have_el(ptr noundef readonly captures(none) %0, i32 noundef %1) local_unnamed_addr #0 {
ossl_qrl_enc_level_set_get.exit:
  %2 = icmp ult i32 %1, 4
  tail call void @llvm.assume(i1 %2)
  %3 = zext nneg i32 %1 to i64
  %4 = getelementptr inbounds nuw [4 x %struct.ossl_qrl_enc_level_st], ptr %0, i64 0, i64 %3, i32 9
  %5 = load i8, ptr %4, align 8, !tbaa !4
  %6 = icmp ult i8 %5, 4
  br i1 %6, label %switch.lookup, label %8

switch.lookup:                                    ; preds = %ossl_qrl_enc_level_set_get.exit
  %7 = zext nneg i8 %5 to i64
  %switch.gep = getelementptr inbounds nuw [4 x i32], ptr @switch.table.ossl_qrl_enc_level_set_have_el, i64 0, i64 %7
  %switch.load = load i32, ptr %switch.gep, align 4
  br label %8

8:                                                ; preds = %ossl_qrl_enc_level_set_get.exit, %switch.lookup
  %.0 = phi i32 [ %switch.load, %switch.lookup ], [ -1, %ossl_qrl_enc_level_set_get.exit ]
  ret i32 %.0
}